; Function Attrs: mustprogress nofree norecurse nosync nounwind willreturn memory(argmem: readwrite) uwtable
define internal noundef ptr @_ZN5eastl8internal20function_base_detailILi16EE16function_managerIMZ40TestFixedFunctionPointerToMemberFunctionvE10TestIntRetFivEiJRS4_EE7ManagerEPvS9_NS2_17ManagerOperationsE(ptr noundef writeonly %to, ptr noundef readonly captures(none) %from, i32 noundef %ops) #2 align 2 personality ptr @__gxx_personality_v0 {
entry:
  switch i32 %ops, label %sw.default [
    i32 3, label %return
    i32 4, label %sw.bb1
  ]

sw.bb1:                                           ; preds = %entry
  br label %return

sw.default:                                       ; preds = %entry
  %ops.off.i = add i32 %ops, -1
  %switch.i = icmp ult i32 %ops.off.i, 2
  br i1 %switch.i, label %sw.epilog.sink.split.i, label %return

sw.epilog.sink.split.i:                           ; preds = %sw.default
  %from.val6.i = load i64, ptr %from, align 8
  %0 = getelementptr i8, ptr %from, i64 8
  %from.val7.i = load i64, ptr %0, align 8
  store i64 %from.val6.i, ptr %to, align 8
  %call.repack3.i8.i = getelementptr inbounds nuw i8, ptr %to, i64 8
  store i64 %from.val7.i, ptr %call.repack3.i8.i, align 8
  br label %return

return:                                           ; preds = %sw.epilog.sink.split.i, %sw.default, %entry, %sw.bb1
  %retval.0 = phi ptr [ %to, %sw.bb1 ], [ @_ZTIMZ40TestFixedFunctionPointerToMemberFunctionvE10TestIntRetFivE, %entry ], [ null, %sw.default ], [ null, %sw.epilog.sink.split.i ]
  ret ptr %retval.0
}